; Function Attrs: nounwind uwtable
define i32 @pmix_bfrops_base_pack_satyp(ptr noundef %0, ptr noundef %1, ptr noundef %2, i32 noundef %3, i16 noundef zeroext %4) local_unnamed_addr #0 {
  %6 = getelementptr inbounds nuw i8, ptr %0, i64 128
  %7 = load i32, ptr %6, align 8, !tbaa !15
  %.not.i = icmp sgt i32 %7, 13
  br i1 %.not.i, label %pmix_pointer_array_get_item.exit, label %pmix_pointer_array_get_item.exit.thread, !prof !18

pmix_pointer_array_get_item.exit:                 ; preds = %5
  %8 = getelementptr inbounds nuw i8, ptr %0, i64 152
  %9 = load ptr, ptr %8, align 8, !tbaa !19
  %10 = getelementptr inbounds nuw i8, ptr %9, i64 104
  %11 = load ptr, ptr %10, align 8, !tbaa !20
  %12 = icmp eq ptr %11, null
  br i1 %12, label %pmix_pointer_array_get_item.exit.thread, label %13

13:                                               ; preds = %pmix_pointer_array_get_item.exit
  %14 = getelementptr inbounds nuw i8, ptr %11, i64 136
  %15 = load ptr, ptr %14, align 8, !tbaa !21
  %16 = tail call i32 %15(ptr noundef nonnull %0, ptr noundef %1, ptr noundef %2, i32 noundef %3, i16 noundef zeroext 13) #8
  br label %pmix_pointer_array_get_item.exit.thread

pmix_pointer_array_get_item.exit.thread:          ; preds = %5, %pmix_pointer_array_get_item.exit, %13
  %.0 = phi i32 [ %16, %13 ], [ -16, %pmix_pointer_array_get_item.exit ], [ -16, %5 ]
  ret i32 %.0
}